target datalayout = "e-m:e-p270:32:32-p271:32:32-p272:64:64-i64:64-i128:128-f80:128-n8:16:32:64-S128"
target triple = "x86_64-pc-linux-gnu"

%struct.ARKodeMRIStepMemRec = type { ptr, ptr, i32, i32, i32, i32, i32, ptr, ptr, i32, i32, i32, ptr, i32, i32, i32, i32, i32, ptr, ptr, ptr, ptr, ptr, ptr, ptr, i32, ptr, i32, ptr, double, double, double, double, i32, double, double, double, double, double, double, i32, i64, i32, i32, i32, ptr, ptr, ptr, ptr, ptr, ptr, ptr, ptr, ptr, double, double, double, i64, i64, i64, i64, i64, i64, i32, i32, i32, double, double, ptr, i32, ptr, ptr }
%struct._MRIStepInnerStepper = type { ptr, ptr, ptr, ptr, i32, i32, i32, double, double, ptr, ptr, i64, i64, i64, i64 }

@__func__.MRIStepGetLastInnerStepFlag = private unnamed_addr constant [28 x i8] c"MRIStepGetLastInnerStepFlag\00", align 1

; Function Attrs: nounwind uwtable
define i32 @MRIStepGetLastInnerStepFlag(ptr noundef %0, ptr noundef %1) #0 {
  %3 = alloca i32, align 4
  %4 = alloca ptr, align 8
  %5 = alloca ptr, align 8
  %6 = alloca ptr, align 8
  %7 = alloca ptr, align 8
  %8 = alloca i32, align 4
  %9 = alloca i32, align 4
  store ptr %0, ptr %4, align 8, !tbaa !3
  store ptr %1, ptr %5, align 8, !tbaa !51
  call void @llvm.lifetime.start.p0(i64 8, ptr %6) #4
  call void @llvm.lifetime.start.p0(i64 8, ptr %7) #4
  call void @llvm.lifetime.start.p0(i64 4, ptr %8) #4
  %10 = load ptr, ptr %4, align 8, !tbaa !3
  %11 = call i32 @mriStep_AccessARKODEStepMem(ptr noundef %10, ptr noundef @__func__.MRIStepGetLastInnerStepFlag, ptr noundef %6, ptr noundef %7)
  store i32 %11, ptr %8, align 4, !tbaa !9
  %12 = load i32, ptr %8, align 4, !tbaa !9
  %13 = icmp ne i32 %12, 0
  br i1 %13, label %14, label %16

14:                                               ; preds = %2
  %15 = load i32, ptr %8, align 4, !tbaa !9
  store i32 %15, ptr %3, align 4
  store i32 1, ptr %9, align 4
  br label %23

16:                                               ; preds = %2
  %17 = load ptr, ptr %7, align 8, !tbaa !13
  %18 = getelementptr inbounds nuw %struct.ARKodeMRIStepMemRec, ptr %17, i32 0, i32 51
  %19 = load ptr, ptr %18, align 8, !tbaa !52
  %20 = getelementptr inbounds nuw %struct._MRIStepInnerStepper, ptr %19, i32 0, i32 6
  %21 = load i32, ptr %20, align 8, !tbaa !53
  %22 = load ptr, ptr %5, align 8, !tbaa !51
  store i32 %21, ptr %22, align 4, !tbaa !9
  store i32 0, ptr %3, align 4
  store i32 1, ptr %9, align 4
  br label %23

23:                                               ; preds = %16, %14
  call void @llvm.lifetime.end.p0(i64 4, ptr %8) #4
  call void @llvm.lifetime.end.p0(i64 8, ptr %7) #4
  call void @llvm.lifetime.end.p0(i64 8, ptr %6) #4
  %24 = load i32, ptr %3, align 4
  ret i32 %24
}